target datalayout = "e-m:e-p270:32:32-p271:32:32-p272:64:64-i64:64-i128:128-f80:128-n8:16:32:64-S128"
target triple = "x86_64-pc-linux-gnu"

%struct.BIO_CORE_GLOBALS = type { ptr, ptr, ptr, ptr, ptr, ptr, ptr }
%struct.bio_st = type { ptr, ptr, ptr, ptr, ptr, i32, i32, i32, i32, i32, ptr, ptr, ptr, %struct.CRYPTO_REF_COUNT, i64, i64, %struct.crypto_ex_data_st }
%struct.CRYPTO_REF_COUNT = type { i32 }
%struct.crypto_ex_data_st = type { ptr, ptr }

; Function Attrs: inlinehint nounwind uwtable
define internal ptr @get_globals(ptr noundef %0) #3 {
  %2 = alloca ptr, align 8
  store ptr %0, ptr %2, align 8, !tbaa !7
  %3 = load ptr, ptr %2, align 8, !tbaa !7
  %4 = call ptr @ossl_lib_ctx_get_data(ptr noundef %3, i32 noundef 17)
  ret ptr %4
}

; Function Attrs: nounwind uwtable
define internal i32 @bio_core_free(ptr noundef %0) #0 {
  %2 = alloca i32, align 4
  %3 = alloca ptr, align 8
  %4 = alloca ptr, align 8
  %5 = alloca i32, align 4
  store ptr %0, ptr %3, align 8, !tbaa !14
  call void @llvm.lifetime.start.p0(i64 8, ptr %4) #4
  %6 = load ptr, ptr %3, align 8, !tbaa !14
  %7 = getelementptr inbounds nuw %struct.bio_st, ptr %6, i32 0, i32 0
  %8 = load ptr, ptr %7, align 8, !tbaa !35
  %9 = call ptr @get_globals(ptr noundef %8)
  store ptr %9, ptr %4, align 8, !tbaa !3
  %10 = load ptr, ptr %4, align 8, !tbaa !3
  %11 = icmp eq ptr %10, null
  br i1 %11, label %12, label %13

12:                                               ; preds = %1
  store i32 0, ptr %2, align 4
  store i32 1, ptr %5, align 4
  br label %21

13:                                               ; preds = %1
  %14 = load ptr, ptr %3, align 8, !tbaa !14
  call void @BIO_set_init(ptr noundef %14, i32 noundef 0)
  %15 = load ptr, ptr %4, align 8, !tbaa !3
  %16 = getelementptr inbounds nuw %struct.BIO_CORE_GLOBALS, ptr %15, i32 0, i32 6
  %17 = load ptr, ptr %16, align 8, !tbaa !25
  %18 = load ptr, ptr %3, align 8, !tbaa !14
  %19 = call ptr @BIO_get_data(ptr noundef %18)
  %20 = call i32 %17(ptr noundef %19)
  store i32 1, ptr %2, align 4
  store i32 1, ptr %5, align 4
  br label %21

21:                                               ; preds = %13, %12
  call void @llvm.lifetime.end.p0(i64 8, ptr %4) #4
  %22 = load i32, ptr %2, align 4
  ret i32 %22
}