; Function Attrs: nounwind uwtable
define internal range(i32 0, 2) i32 @bio_core_free(ptr noundef %0) #0 {
  %2 = load ptr, ptr %0, align 8, !tbaa !20
  %3 = tail call ptr @ossl_lib_ctx_get_data(ptr noundef %2, i32 noundef 17) #3
  %4 = icmp eq ptr %3, null
  br i1 %4, label %10, label %5

5:                                                ; preds = %1
  tail call void @BIO_set_init(ptr noundef nonnull %0, i32 noundef 0) #3
  %6 = getelementptr inbounds nuw i8, ptr %3, i64 48
  %7 = load ptr, ptr %6, align 8, !tbaa !17
  %8 = tail call ptr @BIO_get_data(ptr noundef nonnull %0) #3
  %9 = tail call i32 %7(ptr noundef %8) #3
  br label %10

10:                                               ; preds = %1, %5
  %.0 = phi i32 [ 1, %5 ], [ 0, %1 ]
  ret i32 %.0
}